target datalayout = "e-m:e-p270:32:32-p271:32:32-p272:64:64-i64:64-i128:128-f80:128-n8:16:32:64-S128"
target triple = "x86_64-pc-linux-gnu"

%struct._object = type { %union.anon, ptr }
%union.anon = type { i64 }

@.str.65 = private unnamed_addr constant [40 x i8] c"../cpython/Modules/_testcapi/pyatomic.c\00", align 1
@.str.66 = private unnamed_addr constant [7 x i8] c"x == 1\00", align 1
@.str.68 = private unnamed_addr constant [7 x i8] c"x == 3\00", align 1
@.str.71 = private unnamed_addr constant [7 x i8] c"x == 0\00", align 1
@_Py_NoneStruct = external global %struct._object, align 8
@.str.104 = private unnamed_addr constant [35 x i8] c"_Py_atomic_add_uintptr(&x, 1) == 0\00", align 1
@__PRETTY_FUNCTION__.test_atomic_add_uintptr = private unnamed_addr constant [58 x i8] c"PyObject *test_atomic_add_uintptr(PyObject *, PyObject *)\00", align 1
@.str.105 = private unnamed_addr constant [35 x i8] c"_Py_atomic_add_uintptr(&x, 2) == 1\00", align 1
@.str.106 = private unnamed_addr constant [36 x i8] c"_Py_atomic_add_uintptr(&x, -2) == 3\00", align 1
@.str.107 = private unnamed_addr constant [36 x i8] c"_Py_atomic_add_uintptr(&x, -1) == 1\00", align 1
@.str.108 = private unnamed_addr constant [36 x i8] c"_Py_atomic_add_uintptr(&x, -1) == 0\00", align 1
@.str.109 = private unnamed_addr constant [19 x i8] c"x == (uintptr_t)-1\00", align 1
@.str.110 = private unnamed_addr constant [48 x i8] c"_Py_atomic_add_uintptr(&x, -2) == (uintptr_t)-1\00", align 1
@.str.111 = private unnamed_addr constant [19 x i8] c"x == (uintptr_t)-3\00", align 1
@.str.112 = private unnamed_addr constant [47 x i8] c"_Py_atomic_add_uintptr(&x, 2) == (uintptr_t)-3\00", align 1

; Function Attrs: inlinehint nounwind uwtable
define internal i64 @_Py_atomic_add_uintptr(ptr noundef %0, i64 noundef %1) #3 {
  %3 = alloca ptr, align 8
  %4 = alloca i64, align 8
  %5 = alloca i64, align 8
  %6 = alloca i64, align 8
  store ptr %0, ptr %3, align 8, !tbaa !22
  store i64 %1, ptr %4, align 8, !tbaa !13
  %7 = load ptr, ptr %3, align 8, !tbaa !22
  %8 = load i64, ptr %4, align 8, !tbaa !13
  store i64 %8, ptr %5, align 8, !tbaa !13
  %9 = load i64, ptr %5, align 8
  %10 = atomicrmw add ptr %7, i64 %9 seq_cst, align 8
  store i64 %10, ptr %6, align 8
  %11 = load i64, ptr %6, align 8, !tbaa !13
  ret i64 %11
}

; Function Attrs: nounwind uwtable
define internal ptr @test_atomic_add_uintptr(ptr noundef %0, ptr noundef %1) #0 {
  %3 = alloca ptr, align 8
  %4 = alloca ptr, align 8
  %5 = alloca i64, align 8
  store ptr %0, ptr %3, align 8, !tbaa !3
  store ptr %1, ptr %4, align 8, !tbaa !3
  call void @llvm.lifetime.start.p0(i64 8, ptr %5) #5
  store i64 0, ptr %5, align 8, !tbaa !13
  %6 = call i64 @_Py_atomic_add_uintptr(ptr noundef %5, i64 noundef 1)
  %7 = icmp eq i64 %6, 0
  br i1 %7, label %8, label %9

8:                                                ; preds = %2
  br label %11

9:                                                ; preds = %2
  call void @__assert_fail(ptr noundef @.str.104, ptr noundef @.str.65, i32 noundef 54, ptr noundef @__PRETTY_FUNCTION__.test_atomic_add_uintptr) #6
  unreachable

10:                                               ; No predecessors!
  br label %11

11:                                               ; preds = %10, %8
  %12 = load i64, ptr %5, align 8, !tbaa !13
  %13 = icmp eq i64 %12, 1
  br i1 %13, label %14, label %15

14:                                               ; preds = %11
  br label %17

15:                                               ; preds = %11
  call void @__assert_fail(ptr noundef @.str.66, ptr noundef @.str.65, i32 noundef 54, ptr noundef @__PRETTY_FUNCTION__.test_atomic_add_uintptr) #6
  unreachable

16:                                               ; No predecessors!
  br label %17

17:                                               ; preds = %16, %14
  %18 = call i64 @_Py_atomic_add_uintptr(ptr noundef %5, i64 noundef 2)
  %19 = icmp eq i64 %18, 1
  br i1 %19, label %20, label %21

20:                                               ; preds = %17
  br label %23

21:                                               ; preds = %17
  call void @__assert_fail(ptr noundef @.str.105, ptr noundef @.str.65, i32 noundef 54, ptr noundef @__PRETTY_FUNCTION__.test_atomic_add_uintptr) #6
  unreachable

22:                                               ; No predecessors!
  br label %23

23:                                               ; preds = %22, %20
  %24 = load i64, ptr %5, align 8, !tbaa !13
  %25 = icmp eq i64 %24, 3
  br i1 %25, label %26, label %27

26:                                               ; preds = %23
  br label %29

27:                                               ; preds = %23
  call void @__assert_fail(ptr noundef @.str.68, ptr noundef @.str.65, i32 noundef 54, ptr noundef @__PRETTY_FUNCTION__.test_atomic_add_uintptr) #6
  unreachable

28:                                               ; No predecessors!
  br label %29

29:                                               ; preds = %28, %26
  %30 = call i64 @_Py_atomic_add_uintptr(ptr noundef %5, i64 noundef -2)
  %31 = icmp eq i64 %30, 3
  br i1 %31, label %32, label %33

32:                                               ; preds = %29
  br label %35

33:                                               ; preds = %29
  call void @__assert_fail(ptr noundef @.str.106, ptr noundef @.str.65, i32 noundef 54, ptr noundef @__PRETTY_FUNCTION__.test_atomic_add_uintptr) #6
  unreachable

34:                                               ; No predecessors!
  br label %35

35:                                               ; preds = %34, %32
  %36 = load i64, ptr %5, align 8, !tbaa !13
  %37 = icmp eq i64 %36, 1
  br i1 %37, label %38, label %39

38:                                               ; preds = %35
  br label %41

39:                                               ; preds = %35
  call void @__assert_fail(ptr noundef @.str.66, ptr noundef @.str.65, i32 noundef 54, ptr noundef @__PRETTY_FUNCTION__.test_atomic_add_uintptr) #6
  unreachable

40:                                               ; No predecessors!
  br label %41

41:                                               ; preds = %40, %38
  %42 = call i64 @_Py_atomic_add_uintptr(ptr noundef %5, i64 noundef -1)
  %43 = icmp eq i64 %42, 1
  br i1 %43, label %44, label %45

44:                                               ; preds = %41
  br label %47

45:                                               ; preds = %41
  call void @__assert_fail(ptr noundef @.str.107, ptr noundef @.str.65, i32 noundef 54, ptr noundef @__PRETTY_FUNCTION__.test_atomic_add_uintptr) #6
  unreachable

46:                                               ; No predecessors!
  br label %47

47:                                               ; preds = %46, %44
  %48 = load i64, ptr %5, align 8, !tbaa !13
  %49 = icmp eq i64 %48, 0
  br i1 %49, label %50, label %51

50:                                               ; preds = %47
  br label %53

51:                                               ; preds = %47
  call void @__assert_fail(ptr noundef @.str.71, ptr noundef @.str.65, i32 noundef 54, ptr noundef @__PRETTY_FUNCTION__.test_atomic_add_uintptr) #6
  unreachable

52:                                               ; No predecessors!
  br label %53

53:                                               ; preds = %52, %50
  %54 = call i64 @_Py_atomic_add_uintptr(ptr noundef %5, i64 noundef -1)
  %55 = icmp eq i64 %54, 0
  br i1 %55, label %56, label %57

56:                                               ; preds = %53
  br label %59

57:                                               ; preds = %53
  call void @__assert_fail(ptr noundef @.str.108, ptr noundef @.str.65, i32 noundef 54, ptr noundef @__PRETTY_FUNCTION__.test_atomic_add_uintptr) #6
  unreachable

58:                                               ; No predecessors!
  br label %59

59:                                               ; preds = %58, %56
  %60 = load i64, ptr %5, align 8, !tbaa !13
  %61 = icmp eq i64 %60, -1
  br i1 %61, label %62, label %63

62:                                               ; preds = %59
  br label %65

63:                                               ; preds = %59
  call void @__assert_fail(ptr noundef @.str.109, ptr noundef @.str.65, i32 noundef 54, ptr noundef @__PRETTY_FUNCTION__.test_atomic_add_uintptr) #6
  unreachable

64:                                               ; No predecessors!
  br label %65

65:                                               ; preds = %64, %62
  %66 = call i64 @_Py_atomic_add_uintptr(ptr noundef %5, i64 noundef -2)
  %67 = icmp eq i64 %66, -1
  br i1 %67, label %68, label %69

68:                                               ; preds = %65
  br label %71

69:                                               ; preds = %65
  call void @__assert_fail(ptr noundef @.str.110, ptr noundef @.str.65, i32 noundef 54, ptr noundef @__PRETTY_FUNCTION__.test_atomic_add_uintptr) #6
  unreachable

70:                                               ; No predecessors!
  br label %71

71:                                               ; preds = %70, %68
  %72 = load i64, ptr %5, align 8, !tbaa !13
  %73 = icmp eq i64 %72, -3
  br i1 %73, label %74, label %75

74:                                               ; preds = %71
  br label %77

75:                                               ; preds = %71
  call void @__assert_fail(ptr noundef @.str.111, ptr noundef @.str.65, i32 noundef 54, ptr noundef @__PRETTY_FUNCTION__.test_atomic_add_uintptr) #6
  unreachable

76:                                               ; No predecessors!
  br label %77

77:                                               ; preds = %76, %74
  %78 = call i64 @_Py_atomic_add_uintptr(ptr noundef %5, i64 noundef 2)
  %79 = icmp eq i64 %78, -3
  br i1 %79, label %80, label %81

80:                                               ; preds = %77
  br label %83

81:                                               ; preds = %77
  call void @__assert_fail(ptr noundef @.str.112, ptr noundef @.str.65, i32 noundef 54, ptr noundef @__PRETTY_FUNCTION__.test_atomic_add_uintptr) #6
  unreachable

82:                                               ; No predecessors!
  br label %83

83:                                               ; preds = %82, %80
  %84 = load i64, ptr %5, align 8, !tbaa !13
  %85 = icmp eq i64 %84, -1
  br i1 %85, label %86, label %87

86:                                               ; preds = %83
  br label %89

87:                                               ; preds = %83
  call void @__assert_fail(ptr noundef @.str.109, ptr noundef @.str.65, i32 noundef 54, ptr noundef @__PRETTY_FUNCTION__.test_atomic_add_uintptr) #6
  unreachable

88:                                               ; No predecessors!
  br label %89

89:                                               ; preds = %88, %86
  call void @llvm.lifetime.end.p0(i64 8, ptr %5) #5
  ret ptr @_Py_NoneStruct
}